target datalayout = "e-m:e-p270:32:32-p271:32:32-p272:64:64-i64:64-i128:128-f80:128-n8:16:32:64-S128"
target triple = "x86_64-pc-linux-gnu"

%struct.AVFilterContext = type { ptr, ptr, ptr, ptr, ptr, i32, ptr, ptr, i32, ptr, ptr, i32, i32, ptr, ptr, ptr, ptr, i32, ptr, i32, i32 }
%struct.DisplaceContext = type { ptr, [4 x i32], [4 x i32], i32, i32, i32, i32, [4 x i8], %struct.FFFrameSync, ptr }
%struct.FFFrameSync = type { ptr, ptr, i32, %struct.AVRational, i64, ptr, ptr, i32, i32, i8, i8, ptr, i32, i32, i32, i32 }
%struct.AVRational = type { i32, i32 }
%struct.AVFilterLink = type { ptr, ptr, ptr, ptr, i32, i32, i32, i32, %struct.AVRational, i32, i32, i32, %struct.AVChannelLayout, %struct.AVRational, ptr, i32, %struct.AVFilterFormatsConfig, %struct.AVFilterFormatsConfig }
%struct.AVChannelLayout = type { i32, i32, %union.anon.1, ptr }
%union.anon.1 = type { i64 }
%struct.AVFilterFormatsConfig = type { ptr, ptr, ptr, ptr, ptr }
%struct.ThreadData = type { ptr, ptr, ptr, ptr }
%struct.AVFrame = type { [8 x ptr], [8 x i32], ptr, i32, i32, i32, i32, i32, %struct.AVRational, i64, i64, %struct.AVRational, i32, ptr, i32, i32, [8 x ptr], ptr, i32, ptr, i32, i32, i32, i32, i32, i32, i32, i64, ptr, i32, ptr, ptr, i64, i64, i64, i64, ptr, %struct.AVChannelLayout, i64 }

; Function Attrs: nounwind uwtable
define internal i32 @process_frame(ptr noundef %0) #2 {
  %2 = alloca i32, align 4
  %3 = alloca ptr, align 8
  %4 = alloca ptr, align 8
  %5 = alloca ptr, align 8
  %6 = alloca ptr, align 8
  %7 = alloca ptr, align 8
  %8 = alloca ptr, align 8
  %9 = alloca ptr, align 8
  %10 = alloca ptr, align 8
  %11 = alloca i32, align 4
  %12 = alloca i32, align 4
  %13 = alloca %struct.ThreadData, align 8
  store ptr %0, ptr %3, align 8, !tbaa !98
  call void @llvm.lifetime.start.p0(i64 8, ptr %4) #10
  %14 = load ptr, ptr %3, align 8, !tbaa !98
  %15 = getelementptr inbounds nuw %struct.FFFrameSync, ptr %14, i32 0, i32 1
  %16 = load ptr, ptr %15, align 8, !tbaa !100
  store ptr %16, ptr %4, align 8, !tbaa !4
  call void @llvm.lifetime.start.p0(i64 8, ptr %5) #10
  %17 = load ptr, ptr %3, align 8, !tbaa !98
  %18 = getelementptr inbounds nuw %struct.FFFrameSync, ptr %17, i32 0, i32 6
  %19 = load ptr, ptr %18, align 8, !tbaa !101
  store ptr %19, ptr %5, align 8, !tbaa !22
  call void @llvm.lifetime.start.p0(i64 8, ptr %6) #10
  %20 = load ptr, ptr %4, align 8, !tbaa !4
  %21 = getelementptr inbounds nuw %struct.AVFilterContext, ptr %20, i32 0, i32 7
  %22 = load ptr, ptr %21, align 8, !tbaa !102
  %23 = getelementptr inbounds ptr, ptr %22, i64 0
  %24 = load ptr, ptr %23, align 8, !tbaa !24
  store ptr %24, ptr %6, align 8, !tbaa !24
  call void @llvm.lifetime.start.p0(i64 8, ptr %7) #10
  call void @llvm.lifetime.start.p0(i64 8, ptr %8) #10
  call void @llvm.lifetime.start.p0(i64 8, ptr %9) #10
  call void @llvm.lifetime.start.p0(i64 8, ptr %10) #10
  call void @llvm.lifetime.start.p0(i64 4, ptr %11) #10
  %25 = load ptr, ptr %5, align 8, !tbaa !22
  %26 = getelementptr inbounds nuw %struct.DisplaceContext, ptr %25, i32 0, i32 8
  %27 = call i32 @ff_framesync_get_frame(ptr noundef %26, i32 noundef 0, ptr noundef %8, i32 noundef 0)
  store i32 %27, ptr %11, align 4, !tbaa !50
  %28 = icmp slt i32 %27, 0
  br i1 %28, label %39, label %29

29:                                               ; preds = %1
  %30 = load ptr, ptr %5, align 8, !tbaa !22
  %31 = getelementptr inbounds nuw %struct.DisplaceContext, ptr %30, i32 0, i32 8
  %32 = call i32 @ff_framesync_get_frame(ptr noundef %31, i32 noundef 1, ptr noundef %9, i32 noundef 0)
  store i32 %32, ptr %11, align 4, !tbaa !50
  %33 = icmp slt i32 %32, 0
  br i1 %33, label %39, label %34

34:                                               ; preds = %29
  %35 = load ptr, ptr %5, align 8, !tbaa !22
  %36 = getelementptr inbounds nuw %struct.DisplaceContext, ptr %35, i32 0, i32 8
  %37 = call i32 @ff_framesync_get_frame(ptr noundef %36, i32 noundef 2, ptr noundef %10, i32 noundef 0)
  store i32 %37, ptr %11, align 4, !tbaa !50
  %38 = icmp slt i32 %37, 0
  br i1 %38, label %39, label %41

39:                                               ; preds = %34, %29, %1
  %40 = load i32, ptr %11, align 4, !tbaa !50
  store i32 %40, ptr %2, align 4
  store i32 1, ptr %12, align 4
  br label %118

41:                                               ; preds = %34
  %42 = load ptr, ptr %4, align 8, !tbaa !4
  %43 = getelementptr inbounds nuw %struct.AVFilterContext, ptr %42, i32 0, i32 17
  %44 = load i32, ptr %43, align 8, !tbaa !103
  %45 = icmp ne i32 %44, 0
  br i1 %45, label %46, label %53

46:                                               ; preds = %41
  %47 = load ptr, ptr %8, align 8, !tbaa !60
  %48 = call ptr @av_frame_clone(ptr noundef %47)
  store ptr %48, ptr %7, align 8, !tbaa !60
  %49 = load ptr, ptr %7, align 8, !tbaa !60
  %50 = icmp ne ptr %49, null
  br i1 %50, label %52, label %51

51:                                               ; preds = %46
  store i32 -12, ptr %2, align 4
  store i32 1, ptr %12, align 4
  br label %118

52:                                               ; preds = %46
  br label %100

53:                                               ; preds = %41
  call void @llvm.lifetime.start.p0(i64 32, ptr %13) #10
  %54 = load ptr, ptr %6, align 8, !tbaa !24
  %55 = load ptr, ptr %6, align 8, !tbaa !24
  %56 = getelementptr inbounds nuw %struct.AVFilterLink, ptr %55, i32 0, i32 6
  %57 = load i32, ptr %56, align 8, !tbaa !53
  %58 = load ptr, ptr %6, align 8, !tbaa !24
  %59 = getelementptr inbounds nuw %struct.AVFilterLink, ptr %58, i32 0, i32 7
  %60 = load i32, ptr %59, align 4, !tbaa !52
  %61 = call ptr @ff_get_video_buffer(ptr noundef %54, i32 noundef %57, i32 noundef %60)
  store ptr %61, ptr %7, align 8, !tbaa !60
  %62 = load ptr, ptr %7, align 8, !tbaa !60
  %63 = icmp ne ptr %62, null
  br i1 %63, label %65, label %64

64:                                               ; preds = %53
  store i32 -12, ptr %2, align 4
  store i32 1, ptr %12, align 4
  br label %97

65:                                               ; preds = %53
  %66 = load ptr, ptr %7, align 8, !tbaa !60
  %67 = load ptr, ptr %8, align 8, !tbaa !60
  %68 = call i32 @av_frame_copy_props(ptr noundef %66, ptr noundef %67)
  %69 = load ptr, ptr %8, align 8, !tbaa !60
  %70 = getelementptr inbounds nuw %struct.ThreadData, ptr %13, i32 0, i32 0
  store ptr %69, ptr %70, align 8, !tbaa !57
  %71 = load ptr, ptr %9, align 8, !tbaa !60
  %72 = getelementptr inbounds nuw %struct.ThreadData, ptr %13, i32 0, i32 1
  store ptr %71, ptr %72, align 8, !tbaa !61
  %73 = load ptr, ptr %10, align 8, !tbaa !60
  %74 = getelementptr inbounds nuw %struct.ThreadData, ptr %13, i32 0, i32 2
  store ptr %73, ptr %74, align 8, !tbaa !62
  %75 = load ptr, ptr %7, align 8, !tbaa !60
  %76 = getelementptr inbounds nuw %struct.ThreadData, ptr %13, i32 0, i32 3
  store ptr %75, ptr %76, align 8, !tbaa !63
  %77 = load ptr, ptr %4, align 8, !tbaa !4
  %78 = load ptr, ptr %5, align 8, !tbaa !22
  %79 = getelementptr inbounds nuw %struct.DisplaceContext, ptr %78, i32 0, i32 9
  %80 = load ptr, ptr %79, align 8, !tbaa !45
  %81 = load ptr, ptr %6, align 8, !tbaa !24
  %82 = getelementptr inbounds nuw %struct.AVFilterLink, ptr %81, i32 0, i32 7
  %83 = load i32, ptr %82, align 4, !tbaa !52
  %84 = load ptr, ptr %4, align 8, !tbaa !4
  %85 = call i32 @ff_filter_get_nb_threads(ptr noundef %84) #12
  %86 = icmp sgt i32 %83, %85
  br i1 %86, label %87, label %90

87:                                               ; preds = %65
  %88 = load ptr, ptr %4, align 8, !tbaa !4
  %89 = call i32 @ff_filter_get_nb_threads(ptr noundef %88) #12
  br label %94

90:                                               ; preds = %65
  %91 = load ptr, ptr %6, align 8, !tbaa !24
  %92 = getelementptr inbounds nuw %struct.AVFilterLink, ptr %91, i32 0, i32 7
  %93 = load i32, ptr %92, align 4, !tbaa !52
  br label %94

94:                                               ; preds = %90, %87
  %95 = phi i32 [ %89, %87 ], [ %93, %90 ]
  %96 = call i32 @ff_filter_execute(ptr noundef %77, ptr noundef %80, ptr noundef %13, ptr noundef null, i32 noundef %95)
  store i32 0, ptr %12, align 4
  br label %97

97:                                               ; preds = %94, %64
  call void @llvm.lifetime.end.p0(i64 32, ptr %13) #10
  %98 = load i32, ptr %12, align 4
  switch i32 %98, label %118 [
    i32 0, label %99
  ]

99:                                               ; preds = %97
  br label %100

100:                                              ; preds = %99, %52
  %101 = load ptr, ptr %5, align 8, !tbaa !22
  %102 = getelementptr inbounds nuw %struct.DisplaceContext, ptr %101, i32 0, i32 8
  %103 = getelementptr inbounds nuw %struct.FFFrameSync, ptr %102, i32 0, i32 4
  %104 = load i64, ptr %103, align 8, !tbaa !104
  %105 = load ptr, ptr %5, align 8, !tbaa !22
  %106 = getelementptr inbounds nuw %struct.DisplaceContext, ptr %105, i32 0, i32 8
  %107 = getelementptr inbounds nuw %struct.FFFrameSync, ptr %106, i32 0, i32 3
  %108 = load ptr, ptr %6, align 8, !tbaa !24
  %109 = getelementptr inbounds nuw %struct.AVFilterLink, ptr %108, i32 0, i32 13
  %110 = load i64, ptr %107, align 4
  %111 = load i64, ptr %109, align 8
  %112 = call i64 @av_rescale_q(i64 noundef %104, i64 %110, i64 %111) #11
  %113 = load ptr, ptr %7, align 8, !tbaa !60
  %114 = getelementptr inbounds nuw %struct.AVFrame, ptr %113, i32 0, i32 9
  store i64 %112, ptr %114, align 8, !tbaa !105
  %115 = load ptr, ptr %6, align 8, !tbaa !24
  %116 = load ptr, ptr %7, align 8, !tbaa !60
  %117 = call i32 @ff_filter_frame(ptr noundef %115, ptr noundef %116)
  store i32 %117, ptr %2, align 4
  store i32 1, ptr %12, align 4
  br label %118

118:                                              ; preds = %100, %97, %51, %39
  call void @llvm.lifetime.end.p0(i64 4, ptr %11) #10
  call void @llvm.lifetime.end.p0(i64 8, ptr %10) #10
  call void @llvm.lifetime.end.p0(i64 8, ptr %9) #10
  call void @llvm.lifetime.end.p0(i64 8, ptr %8) #10
  call void @llvm.lifetime.end.p0(i64 8, ptr %7) #10
  call void @llvm.lifetime.end.p0(i64 8, ptr %6) #10
  call void @llvm.lifetime.end.p0(i64 8, ptr %5) #10
  call void @llvm.lifetime.end.p0(i64 8, ptr %4) #10
  %119 = load i32, ptr %2, align 4
  ret i32 %119
}