; Function Attrs: nounwind uwtable
define internal i32 @process_frame(ptr noundef readonly captures(none) %0) #2 {
  %2 = alloca ptr, align 8
  %3 = alloca ptr, align 8
  %4 = alloca ptr, align 8
  %5 = alloca %struct.ThreadData, align 8
  %6 = getelementptr inbounds nuw i8, ptr %0, i64 8
  %7 = load ptr, ptr %6, align 8, !tbaa !86
  %8 = getelementptr inbounds nuw i8, ptr %0, i64 48
  %9 = load ptr, ptr %8, align 8, !tbaa !87
  %10 = getelementptr inbounds nuw i8, ptr %7, i64 56
  %11 = load ptr, ptr %10, align 8, !tbaa !88
  %12 = load ptr, ptr %11, align 8, !tbaa !74
  call void @llvm.lifetime.start.p0(i64 8, ptr nonnull %2) #8
  call void @llvm.lifetime.start.p0(i64 8, ptr nonnull %3) #8
  call void @llvm.lifetime.start.p0(i64 8, ptr nonnull %4) #8
  %13 = getelementptr inbounds nuw i8, ptr %9, i64 64
  %14 = call i32 @ff_framesync_get_frame(ptr noundef nonnull %13, i32 noundef 0, ptr noundef nonnull %2, i32 noundef 0) #8
  %15 = icmp slt i32 %14, 0
  br i1 %15, label %58, label %16

16:                                               ; preds = %1
  %17 = call i32 @ff_framesync_get_frame(ptr noundef nonnull %13, i32 noundef 1, ptr noundef nonnull %3, i32 noundef 0) #8
  %18 = icmp slt i32 %17, 0
  br i1 %18, label %58, label %19

19:                                               ; preds = %16
  %20 = call i32 @ff_framesync_get_frame(ptr noundef nonnull %13, i32 noundef 2, ptr noundef nonnull %4, i32 noundef 0) #8
  %21 = icmp slt i32 %20, 0
  br i1 %21, label %58, label %22

22:                                               ; preds = %19
  %23 = getelementptr inbounds nuw i8, ptr %7, i64 128
  %24 = load i32, ptr %23, align 8, !tbaa !89
  %.not = icmp eq i32 %24, 0
  br i1 %.not, label %28, label %25

25:                                               ; preds = %22
  %26 = load ptr, ptr %2, align 8, !tbaa !90
  %27 = call ptr @av_frame_clone(ptr noundef %26) #8
  %.not39 = icmp eq ptr %27, null
  br i1 %.not39, label %58, label %48

28:                                               ; preds = %22
  call void @llvm.lifetime.start.p0(i64 32, ptr nonnull %5) #8
  %29 = getelementptr inbounds nuw i8, ptr %12, i64 40
  %30 = load i32, ptr %29, align 8, !tbaa !46
  %31 = getelementptr inbounds nuw i8, ptr %12, i64 44
  %32 = load i32, ptr %31, align 4, !tbaa !43
  %33 = call ptr @ff_get_video_buffer(ptr noundef %12, i32 noundef %30, i32 noundef %32) #8
  %.not38.not = icmp eq ptr %33, null
  br i1 %.not38.not, label %.critedge, label %34

34:                                               ; preds = %28
  %35 = load ptr, ptr %2, align 8, !tbaa !90
  %36 = call i32 @av_frame_copy_props(ptr noundef nonnull %33, ptr noundef %35) #8
  %37 = load ptr, ptr %2, align 8, !tbaa !90
  store ptr %37, ptr %5, align 8, !tbaa !47
  %38 = load ptr, ptr %3, align 8, !tbaa !90
  %39 = getelementptr inbounds nuw i8, ptr %5, i64 8
  store ptr %38, ptr %39, align 8, !tbaa !50
  %40 = load ptr, ptr %4, align 8, !tbaa !90
  %41 = getelementptr inbounds nuw i8, ptr %5, i64 16
  store ptr %40, ptr %41, align 8, !tbaa !51
  %42 = getelementptr inbounds nuw i8, ptr %5, i64 24
  store ptr %33, ptr %42, align 8, !tbaa !52
  %43 = getelementptr inbounds nuw i8, ptr %9, i64 160
  %44 = load ptr, ptr %43, align 8, !tbaa !38
  %45 = load i32, ptr %31, align 4, !tbaa !43
  %46 = call i32 @ff_filter_get_nb_threads(ptr noundef nonnull %7) #9
  %. = call i32 @llvm.smin.i32(i32 %45, i32 %46)
  %47 = call i32 @ff_filter_execute(ptr noundef nonnull %7, ptr noundef %44, ptr noundef nonnull %5, ptr noundef null, i32 noundef %.) #8
  call void @llvm.lifetime.end.p0(i64 32, ptr nonnull %5) #8
  br label %48

48:                                               ; preds = %34, %25
  %.029 = phi ptr [ %27, %25 ], [ %33, %34 ]
  %49 = getelementptr inbounds nuw i8, ptr %9, i64 96
  %50 = load i64, ptr %49, align 8, !tbaa !91
  %51 = getelementptr inbounds nuw i8, ptr %9, i64 84
  %52 = getelementptr inbounds nuw i8, ptr %12, i64 96
  %53 = load i64, ptr %51, align 4
  %54 = load i64, ptr %52, align 8
  %55 = call i64 @av_rescale_q(i64 noundef %50, i64 %53, i64 %54) #10
  %56 = getelementptr inbounds nuw i8, ptr %.029, i64 136
  store i64 %55, ptr %56, align 8, !tbaa !92
  %57 = call i32 @ff_filter_frame(ptr noundef %12, ptr noundef nonnull %.029) #8
  br label %58

.critedge:                                        ; preds = %28
  call void @llvm.lifetime.end.p0(i64 32, ptr nonnull %5) #8
  br label %58

58:                                               ; preds = %.critedge, %25, %1, %16, %19, %48
  %.030 = phi i32 [ %57, %48 ], [ %14, %1 ], [ %17, %16 ], [ %20, %19 ], [ -12, %25 ], [ -12, %.critedge ]
  call void @llvm.lifetime.end.p0(i64 8, ptr nonnull %4) #8
  call void @llvm.lifetime.end.p0(i64 8, ptr nonnull %3) #8
  call void @llvm.lifetime.end.p0(i64 8, ptr nonnull %2) #8
  ret i32 %.030
}